; Function Attrs: mustprogress uwtable
define noundef i64 @_ZNK5arrow12BooleanArray11false_countEv(ptr noundef nonnull align 8 dereferenceable(40) %0) local_unnamed_addr #1 align 2 personality ptr @__gxx_personality_v0 {
  %2 = getelementptr inbounds nuw i8, ptr %0, i64 8
  %3 = load ptr, ptr %2, align 8, !tbaa !53
  %4 = getelementptr inbounds nuw i8, ptr %3, i64 16
  %5 = load i64, ptr %4, align 8, !tbaa !95
  %6 = tail call noundef i64 @_ZNK5arrow5Array10null_countEv(ptr noundef nonnull align 8 dereferenceable(32) %0)
  %7 = load ptr, ptr %2, align 8, !tbaa !53
  %8 = getelementptr inbounds nuw i8, ptr %7, i64 24
  %9 = load atomic i64, ptr %8 seq_cst, align 8
  %.not.i.i = icmp eq i64 %9, 0
  br i1 %.not.i.i, label %_ZNK5arrow9ArrayData12MayHaveNullsEv.exit.thread.i, label %_ZNK5arrow9ArrayData12MayHaveNullsEv.exit.i

_ZNK5arrow9ArrayData12MayHaveNullsEv.exit.i:      ; preds = %1
  %10 = getelementptr inbounds nuw i8, ptr %7, i64 40
  %11 = load ptr, ptr %10, align 8, !tbaa !46
  %12 = load ptr, ptr %11, align 8, !tbaa !43
  %.not.i = icmp eq ptr %12, null
  br i1 %.not.i, label %_ZNK5arrow9ArrayData12MayHaveNullsEv.exit.thread.i, label %13

13:                                               ; preds = %_ZNK5arrow9ArrayData12MayHaveNullsEv.exit.i
  %14 = load ptr, ptr %2, align 8, !tbaa !53
  %15 = getelementptr inbounds nuw i8, ptr %14, i64 40
  %16 = load ptr, ptr %15, align 8, !tbaa !46
  %17 = load ptr, ptr %16, align 8, !tbaa !43
  %18 = getelementptr inbounds nuw i8, ptr %17, i64 9
  %19 = load i8, ptr %18, align 1, !tbaa !56, !range !65, !noundef !66
  %20 = trunc nuw i8 %19 to i1
  %21 = getelementptr inbounds nuw i8, ptr %17, i64 16
  %22 = load ptr, ptr %21, align 8
  %23 = select i1 %20, ptr %22, ptr null, !prof !94
  %24 = getelementptr inbounds nuw i8, ptr %14, i64 32
  %25 = load i64, ptr %24, align 8, !tbaa !111
  %26 = getelementptr inbounds nuw i8, ptr %16, i64 16
  %27 = load ptr, ptr %26, align 8, !tbaa !43
  %28 = getelementptr inbounds nuw i8, ptr %27, i64 9
  %29 = load i8, ptr %28, align 1, !tbaa !56, !range !65, !noundef !66
  %30 = trunc nuw i8 %29 to i1
  %31 = getelementptr inbounds nuw i8, ptr %27, i64 16
  %32 = load ptr, ptr %31, align 8
  %33 = select i1 %30, ptr %32, ptr null, !prof !94
  %34 = getelementptr inbounds nuw i8, ptr %14, i64 16
  %35 = load i64, ptr %34, align 8, !tbaa !95
  %36 = tail call noundef i64 @_ZN5arrow8internal15CountAndSetBitsEPKhlS2_ll(ptr noundef %23, i64 noundef %25, ptr noundef %33, i64 noundef %25, i64 noundef %35)
  br label %_ZNK5arrow12BooleanArray10true_countEv.exit

_ZNK5arrow9ArrayData12MayHaveNullsEv.exit.thread.i: ; preds = %_ZNK5arrow9ArrayData12MayHaveNullsEv.exit.i, %1
  %37 = load ptr, ptr %2, align 8, !tbaa !53
  %38 = getelementptr inbounds nuw i8, ptr %37, i64 40
  %39 = load ptr, ptr %38, align 8, !tbaa !46
  %40 = getelementptr inbounds nuw i8, ptr %39, i64 16
  %41 = load ptr, ptr %40, align 8, !tbaa !43
  %42 = getelementptr inbounds nuw i8, ptr %41, i64 9
  %43 = load i8, ptr %42, align 1, !tbaa !56, !range !65, !noundef !66
  %44 = trunc nuw i8 %43 to i1
  %45 = getelementptr inbounds nuw i8, ptr %41, i64 16
  %46 = load ptr, ptr %45, align 8
  %47 = select i1 %44, ptr %46, ptr null, !prof !94
  %48 = getelementptr inbounds nuw i8, ptr %37, i64 32
  %49 = load i64, ptr %48, align 8, !tbaa !111
  %50 = getelementptr inbounds nuw i8, ptr %37, i64 16
  %51 = load i64, ptr %50, align 8, !tbaa !95
  %52 = tail call noundef i64 @_ZN5arrow8internal12CountSetBitsEPKhll(ptr noundef %47, i64 noundef %49, i64 noundef %51)
  br label %_ZNK5arrow12BooleanArray10true_countEv.exit

_ZNK5arrow12BooleanArray10true_countEv.exit:      ; preds = %13, %_ZNK5arrow9ArrayData12MayHaveNullsEv.exit.thread.i
  %.0.i = phi i64 [ %36, %13 ], [ %52, %_ZNK5arrow9ArrayData12MayHaveNullsEv.exit.thread.i ]
  %53 = add i64 %6, %.0.i
  %54 = sub i64 %5, %53
  ret i64 %54
}